; Function Attrs: nounwind uwtable
define dso_local signext i8 @get_attgenerated(i32 noundef %0, i16 noundef signext %1) local_unnamed_addr #0 {
  %3 = zext i32 %0 to i64
  %4 = sext i16 %1 to i64
  %5 = tail call ptr @SearchSysCache2(i32 noundef 7, i64 noundef %3, i64 noundef %4) #8
  %.not = icmp eq ptr %5, null
  br i1 %.not, label %6, label %10

6:                                                ; preds = %2
  %7 = tail call zeroext i1 @errstart_cold(i32 noundef 21, ptr noundef null) #9
  tail call void @llvm.assume(i1 %7)
  %8 = sext i16 %1 to i32
  %9 = tail call i32 (ptr, ...) @errmsg_internal(ptr noundef nonnull @.str.2, i32 noundef %8, i32 noundef %0) #8
  tail call void @errfinish(ptr noundef nonnull @.str.1, i32 noundef 900, ptr noundef nonnull @__func__.get_attgenerated) #8
  unreachable

10:                                               ; preds = %2
  %11 = getelementptr i8, ptr %5, i64 16
  %.val = load ptr, ptr %11, align 8
  %12 = getelementptr inbounds nuw i8, ptr %.val, i64 22
  %13 = load i8, ptr %12, align 2
  %14 = zext i8 %13 to i64
  %15 = getelementptr inbounds nuw i8, ptr %.val, i64 %14
  %16 = getelementptr inbounds nuw i8, ptr %15, i64 90
  %17 = load i8, ptr %16, align 2
  tail call void @ReleaseSysCache(ptr noundef nonnull %5) #8
  ret i8 %17
}